; Function Attrs: inlinehint mustprogress nounwind optsize uwtable
define internal noundef ptr @"_ZZN8nanobind6detail11func_createILb0ELb1EZL30nanobind_init_test_holders_extRNS_7module_EE3$_5St10shared_ptrI7ExampleEJS7_EJLm0EEJNS_5scopeENS_4nameEEEEP7_objectOT1_PFT2_DpT3_ESt16integer_sequenceImJXspT4_EEEDpRKT5_ENUlPvPSB_PhNS_9rv_policyEPNS0_12cleanup_listEE_8__invokeESP_SQ_SR_SS_SU_"(ptr readnone captures(none) %0, ptr noundef readonly captures(none) %1, ptr noundef readonly captures(none) %2, i32 noundef %3, ptr noundef %4) #12 align 2 personality ptr @__gxx_personality_v0 {
  %6 = alloca %"struct.nanobind::detail::tuple.151", align 8
  %7 = alloca %"class.std::shared_ptr", align 8
  %8 = alloca %"class.std::shared_ptr", align 8
  call void @llvm.lifetime.start.p0(i64 16, ptr nonnull %8)
  call void @llvm.lifetime.start.p0(i64 16, ptr nonnull %6) #26
  call void @llvm.memset.p0.i64(ptr noundef nonnull align 8 dereferenceable(16) %6, i8 0, i64 16, i1 false)
  %9 = load ptr, ptr %1, align 8, !tbaa !115
  %10 = load i8, ptr %2, align 1, !tbaa !37
  %11 = call noundef zeroext i1 @_ZN8nanobind6detail11type_casterISt10shared_ptrI7ExampleEiE11from_pythonENS_6handleEhPNS0_12cleanup_listE(ptr noundef nonnull align 8 dereferenceable(16) %6, ptr %9, i8 noundef zeroext %10, ptr noundef %4) #27
  br i1 %11, label %12, label %"_ZZN8nanobind6detail11func_createILb0ELb1EZL30nanobind_init_test_holders_extRNS_7module_EE3$_5St10shared_ptrI7ExampleEJS7_EJLm0EEJNS_5scopeENS_4nameEEEEP7_objectOT1_PFT2_DpT3_ESt16integer_sequenceImJXspT4_EEEDpRKT5_ENKUlPvPSB_PhNS_9rv_policyEPNS0_12cleanup_listEE_clESP_SQ_SR_SS_SU_.exit"

12:                                               ; preds = %5
  call void @llvm.lifetime.start.p0(i64 16, ptr nonnull %7) #26
  %13 = load ptr, ptr %6, align 8, !tbaa !152
  %14 = getelementptr inbounds nuw i8, ptr %8, i64 8
  %15 = getelementptr inbounds nuw i8, ptr %6, i64 8
  %16 = load ptr, ptr %15, align 8, !tbaa !126
  store ptr null, ptr %15, align 8, !tbaa !126
  store ptr null, ptr %6, align 8, !tbaa !152
  call void @llvm.experimental.noalias.scope.decl(metadata !190)
  store ptr %13, ptr %7, align 8, !tbaa !152, !alias.scope !190
  %17 = getelementptr inbounds nuw i8, ptr %7, i64 8
  store ptr null, ptr %14, align 8, !tbaa !126, !noalias !190
  store ptr %16, ptr %17, align 8, !tbaa !126, !alias.scope !190
  store ptr null, ptr %8, align 8, !tbaa !152, !noalias !190
  %18 = call ptr @_ZN8nanobind6detail11type_casterISt10shared_ptrI7ExampleEiE8from_cppERKS4_NS_9rv_policyEPNS0_12cleanup_listE(ptr noundef nonnull align 8 dereferenceable(16) %7, i32 noundef %3, ptr noundef %4) #27
  call void @_ZNSt14__shared_countILN9__gnu_cxx12_Lock_policyE2EED2Ev(ptr noundef nonnull align 8 dereferenceable(8) %17) #27
  call void @_ZNSt14__shared_countILN9__gnu_cxx12_Lock_policyE2EED2Ev(ptr noundef nonnull align 8 dereferenceable(8) %14) #27
  call void @llvm.lifetime.end.p0(i64 16, ptr nonnull %7) #26
  br label %"_ZZN8nanobind6detail11func_createILb0ELb1EZL30nanobind_init_test_holders_extRNS_7module_EE3$_5St10shared_ptrI7ExampleEJS7_EJLm0EEJNS_5scopeENS_4nameEEEEP7_objectOT1_PFT2_DpT3_ESt16integer_sequenceImJXspT4_EEEDpRKT5_ENKUlPvPSB_PhNS_9rv_policyEPNS0_12cleanup_listEE_clESP_SQ_SR_SS_SU_.exit"

"_ZZN8nanobind6detail11func_createILb0ELb1EZL30nanobind_init_test_holders_extRNS_7module_EE3$_5St10shared_ptrI7ExampleEJS7_EJLm0EEJNS_5scopeENS_4nameEEEEP7_objectOT1_PFT2_DpT3_ESt16integer_sequenceImJXspT4_EEEDpRKT5_ENKUlPvPSB_PhNS_9rv_policyEPNS0_12cleanup_listEE_clESP_SQ_SR_SS_SU_.exit": ; preds = %5, %12
  %.0.i = phi ptr [ %18, %12 ], [ inttoptr (i64 1 to ptr), %5 ]
  %19 = getelementptr inbounds nuw i8, ptr %6, i64 8
  call void @_ZNSt14__shared_countILN9__gnu_cxx12_Lock_policyE2EED2Ev(ptr noundef nonnull align 8 dereferenceable(8) %19) #27
  call void @llvm.lifetime.end.p0(i64 16, ptr nonnull %6) #26
  call void @llvm.lifetime.end.p0(i64 16, ptr nonnull %8)
  ret ptr %.0.i
}